target datalayout = "e-m:e-p270:32:32-p271:32:32-p272:64:64-i64:64-i128:128-f80:128-n8:16:32:64-S128"
target triple = "x86_64-pc-linux-gnu"

%"class.llvm::StringRef" = type { ptr, i64 }
%"class.llvm::DiagnosticInfo.base" = type <{ ptr, i32, i8 }>
%"class.llvm::DiagnosticLocation" = type { ptr, i32, i32 }
%"class.llvm::DiagnosticInfoWithLocationBase" = type { %"class.llvm::DiagnosticInfo.base", ptr, %"class.llvm::DiagnosticLocation" }
%"class.llvm::SmallVectorBase.75" = type { ptr, i32, i32 }
%"class.llvm::DiagnosticInfoOptimizationBase" = type { %"class.llvm::DiagnosticInfoWithLocationBase", ptr, %"class.llvm::StringRef", %"class.std::optional.103", %"class.llvm::SmallVector.111", i8, i32 }
%"class.std::optional.103" = type { %"struct.std::_Optional_base.104" }
%"struct.std::_Optional_base.104" = type { %"struct.std::_Optional_payload.106" }
%"struct.std::_Optional_payload.106" = type { %"struct.std::_Optional_payload_base.base.108", [7 x i8] }
%"struct.std::_Optional_payload_base.base.108" = type <{ %"union.std::_Optional_payload_base<unsigned long>::_Storage", i8 }>
%"union.std::_Optional_payload_base<unsigned long>::_Storage" = type { i64 }
%"class.llvm::SmallVector.111" = type { %"class.llvm::SmallVectorImpl.112", %"struct.llvm::SmallVectorStorage.115" }
%"class.llvm::SmallVectorImpl.112" = type { %"class.llvm::SmallVectorTemplateBase.113" }
%"class.llvm::SmallVectorTemplateBase.113" = type { %"class.llvm::SmallVectorTemplateCommon.114" }
%"class.llvm::SmallVectorTemplateCommon.114" = type { %"class.llvm::SmallVectorBase.75" }
%"struct.llvm::SmallVectorStorage.115" = type { [320 x i8] }

; Function Attrs: mustprogress nounwind uwtable
define dso_local void @_ZN4llvm30DiagnosticInfoOptimizationBase6insertENS_9StringRefE(ptr noundef nonnull align 8 dereferenceable(424) %0, ptr %1, i64 %2) #0 align 2 {
  %4 = alloca %"class.llvm::StringRef", align 8
  %5 = alloca ptr, align 8
  %6 = getelementptr inbounds nuw { ptr, i64 }, ptr %4, i32 0, i32 0
  store ptr %1, ptr %6, align 8
  %7 = getelementptr inbounds nuw { ptr, i64 }, ptr %4, i32 0, i32 1
  store i64 %2, ptr %7, align 8
  store ptr %0, ptr %5, align 8
  %8 = load ptr, ptr %5, align 8
  %9 = getelementptr inbounds nuw %"class.llvm::DiagnosticInfoOptimizationBase", ptr %8, i32 0, i32 4
  %10 = call noundef nonnull align 8 dereferenceable(80) ptr @_ZN4llvm15SmallVectorImplINS_30DiagnosticInfoOptimizationBase8ArgumentEE12emplace_backIJRNS_9StringRefEEEERS2_DpOT_(ptr noundef nonnull align 8 dereferenceable(16) %9, ptr noundef nonnull align 8 dereferenceable(16) %4)
  ret void
}