; Function Attrs: mustprogress nounwind uwtable
define dso_local void @_ZN4llvm30DiagnosticInfoOptimizationBase6insertENS_9StringRefE(ptr noundef nonnull align 8 dereferenceable(424) %0, ptr %1, i64 %2) local_unnamed_addr #1 align 2 {
  %4 = alloca %"class.llvm::StringRef", align 8
  store ptr %1, ptr %4, align 8
  %5 = getelementptr inbounds nuw i8, ptr %4, i64 8
  store i64 %2, ptr %5, align 8
  %6 = getelementptr inbounds nuw i8, ptr %0, i64 80
  %7 = call noundef nonnull align 8 dereferenceable(80) ptr @_ZN4llvm15SmallVectorImplINS_30DiagnosticInfoOptimizationBase8ArgumentEE12emplace_backIJRNS_9StringRefEEEERS2_DpOT_(ptr noundef nonnull align 8 dereferenceable(16) %6, ptr noundef nonnull align 8 dereferenceable(16) %4)
  ret void
}